; Function Attrs: mustprogress nofree norecurse nosync nounwind willreturn memory(argmem: write) uwtable
define hidden noundef ptr @_Z35pj_projection_specific_setup_latlonP8PJconsts(ptr noundef returned writeonly initializes((104, 152), (352, 356), (380, 388), (456, 472)) %0) local_unnamed_addr #1 {
  %2 = getelementptr inbounds nuw i8, ptr %0, i64 352
  store i32 1, ptr %2, align 8, !tbaa !3
  %3 = getelementptr inbounds nuw i8, ptr %0, i64 456
  %4 = getelementptr inbounds nuw i8, ptr %0, i64 112
  tail call void @llvm.memset.p0.i64(ptr noundef nonnull align 8 dereferenceable(16) %3, i8 0, i64 16, i1 false)
  store ptr @_ZL15latlong_inverse5PJ_XYP8PJconsts, ptr %4, align 8, !tbaa !36
  %5 = getelementptr inbounds nuw i8, ptr %0, i64 104
  store ptr @_ZL15latlong_forward5PJ_LPP8PJconsts, ptr %5, align 8, !tbaa !37
  %6 = getelementptr inbounds nuw i8, ptr %0, i64 128
  store ptr @_ZL18latlong_inverse_3d6PJ_XYZP8PJconsts, ptr %6, align 8, !tbaa !38
  %7 = getelementptr inbounds nuw i8, ptr %0, i64 120
  store ptr @_ZL18latlong_forward_3d6PJ_LPZP8PJconsts, ptr %7, align 8, !tbaa !39
  %8 = getelementptr inbounds nuw i8, ptr %0, i64 144
  store ptr @_ZL18latlong_inverse_4dR8PJ_COORDP8PJconsts, ptr %8, align 8, !tbaa !40
  %9 = getelementptr inbounds nuw i8, ptr %0, i64 136
  store ptr @_ZL18latlong_forward_4dR8PJ_COORDP8PJconsts, ptr %9, align 8, !tbaa !41
  %10 = getelementptr inbounds nuw i8, ptr %0, i64 380
  store i32 4, ptr %10, align 4, !tbaa !45
  %11 = getelementptr inbounds nuw i8, ptr %0, i64 384
  store i32 4, ptr %11, align 8, !tbaa !46
  ret ptr %0
}